; Function Attrs: nounwind uwtable
define internal fastcc ptr @poolStoreString(ptr noundef %0, ptr noundef %1, ptr noundef %2, ptr noundef %3) unnamed_addr #0 {
  %5 = alloca ptr, align 8
  call void @llvm.lifetime.start.p0(i64 8, ptr nonnull %5)
  store ptr %2, ptr %5, align 8, !tbaa !185
  %6 = getelementptr inbounds nuw i8, ptr %0, i64 24
  %7 = load ptr, ptr %6, align 8, !tbaa !133
  %.not.i = icmp eq ptr %7, null
  br i1 %.not.i, label %8, label %10

8:                                                ; preds = %4
  %9 = tail call fastcc zeroext i8 @poolGrow(ptr noundef nonnull %0)
  %.not14.i = icmp eq i8 %9, 0
  br i1 %.not14.i, label %poolAppend.exit.thread, label %10

10:                                               ; preds = %8, %4
  %11 = getelementptr inbounds nuw i8, ptr %1, i64 104
  %12 = getelementptr inbounds nuw i8, ptr %0, i64 16
  br label %13

13:                                               ; preds = %17, %10
  %14 = load ptr, ptr %11, align 8, !tbaa !213
  %15 = load ptr, ptr %12, align 8, !tbaa !134
  %16 = call i32 %14(ptr noundef %1, ptr noundef nonnull %5, ptr noundef %3, ptr noundef nonnull %6, ptr noundef %15) #23
  %or.cond.i = icmp ult i32 %16, 2
  br i1 %or.cond.i, label %poolAppend.exit, label %17

17:                                               ; preds = %13
  %18 = call fastcc zeroext i8 @poolGrow(ptr noundef nonnull %0)
  %.not15.i = icmp eq i8 %18, 0
  br i1 %.not15.i, label %poolAppend.exit.thread, label %13

poolAppend.exit.thread:                           ; preds = %17, %8
  call void @llvm.lifetime.end.p0(i64 8, ptr nonnull %5)
  br label %31

poolAppend.exit:                                  ; preds = %13
  %19 = getelementptr inbounds nuw i8, ptr %0, i64 32
  %20 = load ptr, ptr %19, align 8, !tbaa !135
  call void @llvm.lifetime.end.p0(i64 8, ptr nonnull %5)
  %.not = icmp eq ptr %20, null
  br i1 %.not, label %31, label %21

21:                                               ; preds = %poolAppend.exit
  %22 = load ptr, ptr %6, align 8, !tbaa !133
  %23 = load ptr, ptr %12, align 8, !tbaa !134
  %24 = icmp eq ptr %22, %23
  br i1 %24, label %25, label %27

25:                                               ; preds = %21
  %26 = call fastcc zeroext i8 @poolGrow(ptr noundef nonnull %0)
  %.not10 = icmp eq i8 %26, 0
  br i1 %.not10, label %31, label %._crit_edge

._crit_edge:                                      ; preds = %25
  %.pre = load ptr, ptr %6, align 8, !tbaa !133
  br label %27

27:                                               ; preds = %._crit_edge, %21
  %28 = phi ptr [ %.pre, %._crit_edge ], [ %22, %21 ]
  %29 = getelementptr inbounds nuw i8, ptr %28, i64 1
  store ptr %29, ptr %6, align 8, !tbaa !133
  store i8 0, ptr %28, align 1, !tbaa !4
  %30 = load ptr, ptr %19, align 8, !tbaa !135
  br label %31

31:                                               ; preds = %poolAppend.exit.thread, %25, %poolAppend.exit, %27
  %.0 = phi ptr [ %30, %27 ], [ null, %poolAppend.exit ], [ null, %25 ], [ null, %poolAppend.exit.thread ]
  ret ptr %.0
}